Certificate:
    Data:
        Version: 3 (0x2)
        Serial Number:
            9d:c0:87:97:a0:f6:3f:7d
    Signature Algorithm: sha256WithRSAEncryption
        Issuer: C=NL, ST=Noord-Holland, O=Diff Automatisering, OU=Support group, CN=J. van der Steen/emailAddress=info@diff.nl
        Validity
            Not Before: Apr  1 09:35:37 2020 GMT
            Not After : Apr  1 09:35:37 2021 GMT
        Subject: C=NL, ST=Noord-Holland, L=Amsterdam, O=Diff Automatisering, OU=Server, CN=J. van der Steen/emailAddress=J.van.der.Steen@diff.nl
        Subject Public Key Info:
            Public Key Algorithm: rsaEncryption
                Public-Key: (2048 bit)
                Modulus:
                    00:e7:6c:7a:c1:e9:17:aa:ea:d8:32:73:66:b3:62:
                    ee:3c:7d:c8:e4:3c:59:67:57:67:8d:98:61:24:31:
                    98:23:8f:ef:c3:41:2a:0f:82:1e:6a:6f:2d:00:9e:
                    bf:19:ad:6b:46:42:17:c2:1e:cc:27:b5:c7:66:7a:
                    a5:7b:cc:8c:15:0a:1c:d2:c5:87:23:94:88:42:5e:
                    42:9f:41:22:5a:ad:71:b2:29:54:23:39:cd:05:db:
                    cf:6d:3b:8e:9a:b0:f3:e6:ca:9f:2d:39:28:d6:1c:
                    76:da:34:54:27:f9:a0:0f:1d:ae:32:30:c4:7f:9e:
                    53:18:64:27:2f:05:2b:bf:66:ce:39:52:99:8e:10:
                    1a:80:bf:5e:3a:54:fb:85:da:fc:a7:2d:90:99:42:
                    c7:e2:cf:6a:db:56:1d:3b:bc:0e:97:bf:c5:d4:58:
                    c4:76:33:a2:25:8c:56:94:b4:8d:a9:d3:ab:76:2a:
                    f9:4c:15:de:d1:b8:23:66:3f:36:9a:4b:51:9e:1a:
                    27:e5:f0:38:a3:2a:2a:ab:cd:1c:88:7c:e4:df:82:
                    44:6f:e9:c1:0d:6f:55:98:f4:c0:06:41:ff:1f:c7:
                    30:6a:9a:14:57:73:bd:e0:a7:f7:43:0f:f4:ae:49:
                    b3:48:de:42:fd:0d:be:26:e1:39:4d:24:b8:36:d7:
                    16:43
                Exponent: 65537 (0x10001)
        X509v3 extensions:
            X509v3 Basic Constraints: 
                CA:FALSE
            Netscape Comment: 
                OpenSSL Generated Certificate
            X509v3 Subject Key Identifier: 
                01:84:17:EF:98:0D:F4:DD:FC:24:63:09:EF:2F:E6:BE:52:97:7C:17
            X509v3 Authority Key Identifier: 
                keyid:E2:7B:60:8C:77:BB:B2:74:B8:FD:D6:2C:A9:D3:B9:35:97:12:87:EC

    Signature Algorithm: sha256WithRSAEncryption
         9a:b1:75:61:08:bb:ca:dc:b9:cd:3e:5e:30:f8:86:20:2c:e1:
         47:41:50:c6:a3:e5:b0:d2:08:43:eb:86:9e:5c:2c:7b:4c:40:
         f9:f2:64:1d:7d:9e:f7:31:78:ef:12:05:ff:b9:4e:48:dc:0c:
         b9:9d:df:6f:3e:27:e4:a4:55:b7:61:70:9c:6d:97:30:78:5f:
         72:7a:61:ad:68:96:e6:db:7f:fe:3a:82:52:71:88:42:08:67:
         ce:13:00:af:8f:e1:fd:bb:fd:c8:a4:cc:a9:4e:93:8f:c2:91:
         b8:e8:22:86:c0:65:36:e7:25:fb:c3:ca:bb:23:b2:33:fa:41:
         2c:9c:e7:d8:9f:14:82:1f:a7:ea:20:77:8d:7b:82:3f:22:ea:
         9b:87:8f:86:eb:f7:15:14:17:12:c0:90:6b:cd:7b:e1:9f:da:
         96:aa:59:7c:21:01:98:2f:d6:19:e4:7d:60:04:d3:64:65:a3:
         7b:a4:0f:59:d0:ce:90:1b:e0:6b:55:4f:94:d2:a5:aa:0f:c4:
         05:b9:e8:e4:7e:11:33:db:77:3f:73:ab:ea:2d:6e:00:07:7e:
         5a:6c:42:79:dc:06:86:85:3f:44:25:e7:d6:44:b8:b2:2e:f4:
         f1:a4:60:97:3f:b3:74:29:d7:ec:6d:f1:c4:9c:7b:e4:57:a3:
         3c:be:17:bb
-----BEGIN CERTIFICATE-----
MIIEPjCCAyagAwIBAgIJAJ3Ah5eg9j99MA0GCSqGSIb3DQEBCwUAMIGTMQswCQYD
VQQGEwJOTDEWMBQGA1UECAwNTm9vcmQtSG9sbGFuZDEcMBoGA1UECgwTRGlmZiBB
dXRvbWF0aXNlcmluZzEWMBQGA1UECwwNU3VwcG9ydCBncm91cDEZMBcGA1UEAwwQ
Si4gdmFuIGRlciBTdGVlbjEbMBkGCSqGSIb3DQEJARYMaW5mb0BkaWZmLm5sMB4X
DTIwMDQwMTA5MzUzN1oXDTIxMDQwMTA5MzUzN1owgasxCzAJBgNVBAYTAk5MMRYw
FAYDVQQIDA1Ob29yZC1Ib2xsYW5kMRIwEAYDVQQHDAlBbXN0ZXJkYW0xHDAaBgNV
BAoME0RpZmYgQXV0b21hdGlzZXJpbmcxDzANBgNVBAsMBlNlcnZlcjEZMBcGA1UE
AwwQSi4gdmFuIGRlciBTdGVlbjEmMCQGCSqGSIb3DQEJARYXSi52YW4uZGVyLlN0
ZWVuQGRpZmYubmwwggEiMA0GCSqGSIb3DQEBAQUAA4IBDwAwggEKAoIBAQDnbHrB
6Req6tgyc2azYu48fcjkPFlnV2eNmGEkMZgjj+/DQSoPgh5qby0Anr8ZrWtGQhfC
HswntcdmeqV7zIwVChzSxYcjlIhCXkKfQSJarXGyKVQjOc0F289tO46asPPmyp8t
OSjWHHbaNFQn+aAPHa4yMMR/nlMYZCcvBSu/Zs45UpmOEBqAv146VPuF2vynLZCZ
Qsfiz2rbVh07vA6Xv8XUWMR2M6IljFaUtI2p06t2KvlMFd7RuCNmPzaaS1GeGifl
8DijKiqrzRyIfOTfgkRv6cENb1WY9MAGQf8fxzBqmhRXc73gp/dDD/SuSbNI3kL9
Db4m4TlNJLg21xZDAgMBAAGjezB5MAkGA1UdEwQCMAAwLAYJYIZIAYb4QgENBB8W
HU9wZW5TU0wgR2VuZXJhdGVkIENlcnRpZmljYXRlMB0GA1UdDgQWBBQBhBfvmA30
3fwkYwnvL+a+Upd8FzAfBgNVHSMEGDAWgBTie2CMd7uydLj91iyp07k1lxKH7DAN
BgkqhkiG9w0BAQsFAAOCAQEAmrF1YQi7yty5zT5eMPiGICzhR0FQxqPlsNIIQ+uG
nlwse0xA+fJkHX2e9zF47xIF/7lOSNwMuZ3fbz4n5KRVt2FwnG2XMHhfcnphrWiW
5tt//jqCUnGIQghnzhMAr4/h/bv9yKTMqU6Tj8KRuOgihsBlNucl+8PKuyOyM/pB
LJzn2J8Ugh+n6iB3jXuCPyLqm4ePhuv3FRQXEsCQa8174Z/alqpZfCEBmC/WGeR9
YATTZGWje6QPWdDOkBvga1VPlNKlqg/EBbno5H4RM9t3P3Or6i1uAAd+WmxCedwG
hoU/RCXn1kS4si708aRglz+zdCnX7G3xxJx75FejPL4Xuw==
-----END CERTIFICATE-----
