Certificate:
    Data:
        Version: 3 (0x2)
        Serial Number:
            9d:c0:87:97:a0:f6:3f:7c
    Signature Algorithm: sha256WithRSAEncryption
        Issuer: C=NL, ST=Noord-Holland, O=Diff Automatisering, OU=Support group, CN=J. van der Steen/emailAddress=info@diff.nl
        Validity
            Not Before: Apr  1 09:34:34 2020 GMT
            Not After : Apr  1 09:34:34 2021 GMT
        Subject: C=NL, ST=Noord-Holland, L=Amsterdam, O=Diff Automatisering, OU=Client, CN=J. van der Steen/emailAddress=J.van.der.Steen@diff.nl
        Subject Public Key Info:
            Public Key Algorithm: rsaEncryption
                Public-Key: (2048 bit)
                Modulus:
                    00:a4:cf:45:ac:02:9b:ba:01:48:79:50:2f:f4:58:
                    7b:e0:47:c8:0e:12:9c:f6:9f:29:71:24:e4:41:cc:
                    02:45:03:51:5f:34:69:da:b6:7d:83:29:dd:c7:d8:
                    e0:05:29:9c:7e:a9:a0:31:83:53:3c:df:17:fb:12:
                    da:1a:c3:6b:44:78:b3:17:9b:44:f7:8d:3e:12:5f:
                    cc:31:58:a7:20:ab:d3:dd:45:c7:52:99:d2:48:8b:
                    72:85:d3:bb:04:cd:f9:e0:b7:56:ab:79:b7:66:40:
                    c7:e8:7a:52:ed:ed:55:1b:db:5b:1d:9b:dd:0e:ad:
                    68:2d:c3:da:67:3c:be:6e:08:8f:a3:88:2a:d7:27:
                    0d:b6:90:f0:2d:a8:0b:54:db:95:ba:b9:0a:67:f4:
                    00:65:a0:a7:cf:81:2e:e5:6a:52:6b:18:28:74:82:
                    9f:52:14:11:96:d1:dd:23:25:74:70:81:1e:41:00:
                    ec:65:3b:ac:18:30:06:f6:ed:58:d7:2c:0f:77:fa:
                    53:7c:40:02:e5:70:4a:b8:e0:b3:7b:c5:34:93:f1:
                    77:af:2f:37:a6:09:c9:e6:3d:c4:0f:15:d7:8e:6c:
                    3c:10:ab:2a:5f:38:77:b1:7d:f1:06:6d:49:1e:5a:
                    0f:26:68:fc:eb:e7:c9:b1:b7:87:4e:a6:12:de:b5:
                    5a:1b
                Exponent: 65537 (0x10001)
        X509v3 extensions:
            X509v3 Basic Constraints: 
                CA:FALSE
            Netscape Comment: 
                OpenSSL Generated Certificate
            X509v3 Subject Key Identifier: 
                BD:79:A2:A6:3C:EC:1A:80:75:8D:60:9B:A6:F9:02:6B:C0:ED:E4:8A
            X509v3 Authority Key Identifier: 
                keyid:E2:7B:60:8C:77:BB:B2:74:B8:FD:D6:2C:A9:D3:B9:35:97:12:87:EC

    Signature Algorithm: sha256WithRSAEncryption
         45:62:87:35:99:a7:74:b9:de:08:7c:2f:41:f5:c8:1e:3e:df:
         c6:54:f3:e4:fa:25:a7:7b:8f:b3:1e:89:d2:83:97:50:fd:84:
         c8:53:1d:ab:9c:61:80:44:5f:72:29:6b:59:35:ab:11:45:42:
         4f:0b:02:88:55:b9:4b:40:9a:b0:0b:ed:aa:a6:7a:44:b1:f6:
         01:f2:3c:fd:54:d5:93:8b:9a:68:18:ed:77:c3:39:79:f5:59:
         c2:7a:7f:d0:03:b1:a5:d8:27:62:c8:33:06:7c:c5:26:32:cd:
         92:ce:b0:2e:7f:16:e8:e3:3f:28:8e:b3:66:cd:a5:b1:64:db:
         33:0f:c6:12:f3:22:66:0f:6f:b2:1c:fb:81:bb:a4:ad:c8:27:
         9f:62:72:44:9b:b7:da:3c:10:0e:95:87:33:91:59:a3:0c:ca:
         d9:15:f0:de:52:25:f9:14:16:da:69:d8:af:00:87:f8:f1:6f:
         26:07:9a:f7:4e:ad:07:23:ef:e2:aa:94:b2:45:2a:f7:55:65:
         e4:59:ee:1c:5d:69:64:4f:b3:2f:a7:54:03:36:05:10:8a:43:
         3c:ce:8c:97:91:b6:17:4b:85:ab:a9:51:8f:de:1a:89:4b:1e:
         5f:39:47:b3:ab:cc:14:f4:c6:ba:d3:4a:6f:6a:fe:aa:2d:2c:
         81:53:9a:53
-----BEGIN CERTIFICATE-----
MIIEPjCCAyagAwIBAgIJAJ3Ah5eg9j98MA0GCSqGSIb3DQEBCwUAMIGTMQswCQYD
VQQGEwJOTDEWMBQGA1UECAwNTm9vcmQtSG9sbGFuZDEcMBoGA1UECgwTRGlmZiBB
dXRvbWF0aXNlcmluZzEWMBQGA1UECwwNU3VwcG9ydCBncm91cDEZMBcGA1UEAwwQ
Si4gdmFuIGRlciBTdGVlbjEbMBkGCSqGSIb3DQEJARYMaW5mb0BkaWZmLm5sMB4X
DTIwMDQwMTA5MzQzNFoXDTIxMDQwMTA5MzQzNFowgasxCzAJBgNVBAYTAk5MMRYw
FAYDVQQIDA1Ob29yZC1Ib2xsYW5kMRIwEAYDVQQHDAlBbXN0ZXJkYW0xHDAaBgNV
BAoME0RpZmYgQXV0b21hdGlzZXJpbmcxDzANBgNVBAsMBkNsaWVudDEZMBcGA1UE
AwwQSi4gdmFuIGRlciBTdGVlbjEmMCQGCSqGSIb3DQEJARYXSi52YW4uZGVyLlN0
ZWVuQGRpZmYubmwwggEiMA0GCSqGSIb3DQEBAQUAA4IBDwAwggEKAoIBAQCkz0Ws
Apu6AUh5UC/0WHvgR8gOEpz2nylxJORBzAJFA1FfNGnatn2DKd3H2OAFKZx+qaAx
g1M83xf7Etoaw2tEeLMXm0T3jT4SX8wxWKcgq9PdRcdSmdJIi3KF07sEzfngt1ar
ebdmQMfoelLt7VUb21sdm90OrWgtw9pnPL5uCI+jiCrXJw22kPAtqAtU25W6uQpn
9ABloKfPgS7lalJrGCh0gp9SFBGW0d0jJXRwgR5BAOxlO6wYMAb27VjXLA93+lN8
QALlcEq44LN7xTST8XevLzemCcnmPcQPFdeObDwQqypfOHexffEGbUkeWg8maPzr
58mxt4dOphLetVobAgMBAAGjezB5MAkGA1UdEwQCMAAwLAYJYIZIAYb4QgENBB8W
HU9wZW5TU0wgR2VuZXJhdGVkIENlcnRpZmljYXRlMB0GA1UdDgQWBBS9eaKmPOwa
gHWNYJum+QJrwO3kijAfBgNVHSMEGDAWgBTie2CMd7uydLj91iyp07k1lxKH7DAN
BgkqhkiG9w0BAQsFAAOCAQEARWKHNZmndLneCHwvQfXIHj7fxlTz5Polp3uPsx6J
0oOXUP2EyFMdq5xhgERfcilrWTWrEUVCTwsCiFW5S0CasAvtqqZ6RLH2AfI8/VTV
k4uaaBjtd8M5efVZwnp/0AOxpdgnYsgzBnzFJjLNks6wLn8W6OM/KI6zZs2lsWTb
Mw/GEvMiZg9vshz7gbukrcgnn2JyRJu32jwQDpWHM5FZowzK2RXw3lIl+RQW2mnY
rwCH+PFvJgea906tByPv4qqUskUq91Vl5FnuHF1pZE+zL6dUAzYFEIpDPM6Ml5G2
F0uFq6lRj94aiUseXzlHs6vMFPTGutNKb2r+qi0sgVOaUw==
-----END CERTIFICATE-----
