Certificate:
    Data:
        Version: 3 (0x2)
        Serial Number:
            9d:c0:87:97:a0:f6:3f:7b
    Signature Algorithm: sha256WithRSAEncryption
        Issuer: C=NL, ST=Noord-Holland, O=Diff Automatisering, OU=Support group, CN=J. van der Steen/emailAddress=info@diff.nl
        Validity
            Not Before: Apr  1 09:32:06 2020 GMT
            Not After : Apr  1 09:32:06 2023 GMT
        Subject: C=NL, ST=Noord-Holland, O=Diff Automatisering, OU=Support group, CN=J. van der Steen/emailAddress=info@diff.nl
        Subject Public Key Info:
            Public Key Algorithm: rsaEncryption
                Public-Key: (2048 bit)
                Modulus:
                    00:d1:37:67:ad:b9:9f:0c:a7:93:cf:20:bf:1d:c0:
                    a8:ba:5c:ad:c6:ff:48:68:a0:93:9e:89:a7:1c:4e:
                    ff:88:07:2d:45:59:e1:a5:ae:2f:71:b1:30:b9:d1:
                    95:2b:a8:46:69:62:f2:25:8e:d4:15:e0:f5:2f:68:
                    26:21:f7:8e:7a:83:81:63:4e:63:0c:a5:3f:20:c7:
                    60:37:9f:c6:d8:e8:c7:95:6f:85:23:b9:4d:df:a3:
                    1d:2e:94:02:9a:14:db:28:c7:c3:0e:41:d5:68:7a:
                    82:11:98:8d:fc:ef:2f:8b:85:70:33:fa:26:ff:d4:
                    88:73:11:22:dc:0e:28:49:0b:5a:74:a3:a0:9a:44:
                    e8:0c:2d:47:42:29:c1:cc:d9:77:04:4f:42:f5:a3:
                    87:19:4c:72:b2:9e:9d:f0:3b:58:2e:18:cf:2d:4d:
                    e2:b5:c2:00:9e:67:11:0c:78:bb:53:43:16:55:b1:
                    c6:f6:8a:ea:43:6d:2b:59:48:da:21:d7:32:84:d9:
                    f5:d6:1c:af:03:f7:4a:b7:d3:db:24:f4:85:24:9b:
                    de:17:e5:b8:58:f4:a2:2c:eb:86:59:3b:ac:1e:13:
                    8c:a3:7c:5d:eb:42:db:1b:5b:8d:86:4c:2f:ad:b0:
                    1a:65:32:5f:fd:ad:cb:13:a6:ff:fe:e2:d6:5e:1b:
                    f0:a1
                Exponent: 65537 (0x10001)
        X509v3 extensions:
            X509v3 Subject Key Identifier: 
                E2:7B:60:8C:77:BB:B2:74:B8:FD:D6:2C:A9:D3:B9:35:97:12:87:EC
            X509v3 Authority Key Identifier: 
                keyid:E2:7B:60:8C:77:BB:B2:74:B8:FD:D6:2C:A9:D3:B9:35:97:12:87:EC

            X509v3 Basic Constraints: 
                CA:TRUE
    Signature Algorithm: sha256WithRSAEncryption
         2a:0f:94:6c:75:27:e1:f4:0a:6a:a0:0e:0e:f1:c9:ef:b2:83:
         ae:56:d9:6e:e2:e2:69:ea:a4:2d:ad:fd:79:57:64:00:0c:bd:
         c8:d3:65:2d:d8:4d:5a:e5:b2:14:21:9c:d5:64:1b:ed:86:0d:
         c4:92:28:c5:14:b4:c2:8c:72:fa:4a:97:4f:2d:e9:35:80:5a:
         e4:ad:2d:f3:61:4b:c7:b0:bc:6d:42:e2:07:50:88:5c:42:bf:
         3b:ac:65:25:b4:6a:ef:e2:cd:30:6b:1e:59:10:97:27:dd:10:
         61:3e:e1:2f:c0:fd:5a:53:c1:6f:bb:54:94:90:fb:a0:d9:6b:
         2e:6e:77:79:d6:52:ba:04:70:9d:1e:72:d6:62:a6:e2:c6:60:
         1f:2e:99:e0:62:97:41:b4:f8:a3:5e:a4:78:80:ee:51:b8:4a:
         7c:07:a0:6d:c5:a2:0d:c7:91:d1:7b:3c:84:ee:41:c7:60:e5:
         7f:52:f9:ef:1c:d3:98:35:8c:da:f7:e0:78:1f:13:0d:ea:64:
         d2:38:a5:47:71:32:65:63:7a:7e:d1:de:73:18:b3:73:ed:d3:
         f1:0c:f7:56:f5:1e:2b:a6:5d:9b:ac:9a:27:52:fe:ea:51:2a:
         ef:76:55:d3:31:20:87:e4:5f:f4:dc:50:66:49:02:53:ac:ff:
         fb:35:ac:21
-----BEGIN CERTIFICATE-----
MIID+zCCAuOgAwIBAgIJAJ3Ah5eg9j97MA0GCSqGSIb3DQEBCwUAMIGTMQswCQYD
VQQGEwJOTDEWMBQGA1UECAwNTm9vcmQtSG9sbGFuZDEcMBoGA1UECgwTRGlmZiBB
dXRvbWF0aXNlcmluZzEWMBQGA1UECwwNU3VwcG9ydCBncm91cDEZMBcGA1UEAwwQ
Si4gdmFuIGRlciBTdGVlbjEbMBkGCSqGSIb3DQEJARYMaW5mb0BkaWZmLm5sMB4X
DTIwMDQwMTA5MzIwNloXDTIzMDQwMTA5MzIwNlowgZMxCzAJBgNVBAYTAk5MMRYw
FAYDVQQIDA1Ob29yZC1Ib2xsYW5kMRwwGgYDVQQKDBNEaWZmIEF1dG9tYXRpc2Vy
aW5nMRYwFAYDVQQLDA1TdXBwb3J0IGdyb3VwMRkwFwYDVQQDDBBKLiB2YW4gZGVy
IFN0ZWVuMRswGQYJKoZIhvcNAQkBFgxpbmZvQGRpZmYubmwwggEiMA0GCSqGSIb3
DQEBAQUAA4IBDwAwggEKAoIBAQDRN2etuZ8Mp5PPIL8dwKi6XK3G/0hooJOeiacc
Tv+IBy1FWeGlri9xsTC50ZUrqEZpYvIljtQV4PUvaCYh9456g4FjTmMMpT8gx2A3
n8bY6MeVb4UjuU3fox0ulAKaFNsox8MOQdVoeoIRmI387y+LhXAz+ib/1IhzESLc
DihJC1p0o6CaROgMLUdCKcHM2XcET0L1o4cZTHKynp3wO1guGM8tTeK1wgCeZxEM
eLtTQxZVscb2iupDbStZSNoh1zKE2fXWHK8D90q309sk9IUkm94X5bhY9KIs64ZZ
O6weE4yjfF3rQtsbW42GTC+tsBplMl/9rcsTpv/+4tZeG/ChAgMBAAGjUDBOMB0G
A1UdDgQWBBTie2CMd7uydLj91iyp07k1lxKH7DAfBgNVHSMEGDAWgBTie2CMd7uy
dLj91iyp07k1lxKH7DAMBgNVHRMEBTADAQH/MA0GCSqGSIb3DQEBCwUAA4IBAQAq
D5RsdSfh9ApqoA4O8cnvsoOuVtlu4uJp6qQtrf15V2QADL3I02Ut2E1a5bIUIZzV
ZBvthg3EkijFFLTCjHL6SpdPLek1gFrkrS3zYUvHsLxtQuIHUIhcQr87rGUltGrv
4s0wax5ZEJcn3RBhPuEvwP1aU8Fvu1SUkPug2Wsubnd51lK6BHCdHnLWYqbixmAf
LpngYpdBtPijXqR4gO5RuEp8B6BtxaINx5HRezyE7kHHYOV/UvnvHNOYNYza9+B4
HxMN6mTSOKVHcTJlY3p+0d5zGLNz7dPxDPdW9R4rpl2brJonUv7qUSrvdlXTMSCH
5F/03FBmSQJTrP/7Nawh
-----END CERTIFICATE-----
