-----BEGIN RSA PRIVATE KEY-----
Proc-Type: 4,ENCRYPTED
DEK-Info: DES-EDE3-CBC,9290D80AF65049AB

5hzOR3NPkiVTkldr6Z1b7r6iJG/8tAVvWlyG+9whRagTcPBQKmi504NwRHWmeBaU
mb5f1zYkTGaXwClY++iX/Gy4Guwal2Iw20k5WnjgtZKucJCsnbbJeCYGWCRJGwaK
vJWbeBukdtlqxTXAqjh9Zs2AFmrCy75sbxxVLG/93EvXVHgwD5wq4IfEKU93nSfE
hwSMr6kFnRtO6BzIpehQL3wY/4xflzM4q3Sxi87cRjWfk3UdMznhgjew9VrSVKFt
CBlFbebMx9e1gYZN0x837IsEdhhidlKmWGmtY6Um0nA5VmeK6qJUAbv9rNPwolVj
EosnUprbUyL13vbJUj1kAQB05wvN3Sax5cl9UxS4ls/1MXDMvY66mLwHALwuEGDE
LkpPXKGr7+jfffJr4xr6oMdPouxt+B0a0RHTIlQon8IjisWulTKGSs3SiaU9Wn1r
Jlv80+TfA3X995DECwimMmSx6ueH68bLYG7+cA+Zz7stq/04e2D3VETiXw8LkHW4
JdiqvSaS8qewpR/s60WXGn1Ijt2QEhuwoyRWKAuy3D7hDhgq2fnAvejjCDLqil7R
+uLSKsZ3XXx1JycaxwtTk4PaHx7gjlbfvbPajuDDAYX1ItnWWKIMZkOJx8Oo4k1P
XEYB7QC0I0Qnk6N+7IGr3t2XQbbTpbQGeKDFcT6qvIB0YtaCkQ/VT0VIu7W+HntY
N7JhaImHaJ1ZYRtvaNgMQDM9lFA8D8WBDPHBYkTrVcq0s379wOCIaJ4r/1WIHwBC
w3F4fY8xaMcsTSmSSSXSfs1a/5cHtH0k4BoOhh70qAA=
-----END RSA PRIVATE KEY-----
Certificate:
    Data:
        Version: 3 (0x2)
        Serial Number: 3 (0x3)
        Signature Algorithm: md5WithRSAEncryption
        Issuer: C=US, ST=Florida, L=Tallahassee, O=Florida State University, OU=Computer Science Department, CN=Robert A. van Engelen/Email=engelen@cs.fsu.edu
        Validity
            Not Before: Mar 27 09:03:37 2002 GMT
            Not After : Mar 27 09:03:37 2003 GMT
        Subject: C=US, ST=Florida, L=Tallahassee, O=Florida State University, OU=Florida State University, CN=gSoap client
        Subject Public Key Info:
            Public Key Algorithm: rsaEncryption
            RSA Public Key: (1024 bit)
                Modulus (1024 bit):
                    00:cb:63:21:63:d0:05:19:6c:26:56:84:a2:b5:1a:
                    d2:03:37:dd:f6:29:f6:27:2d:5e:19:81:b6:7d:db:
                    c6:9d:d4:4e:51:a1:a0:c1:06:8b:3c:8f:84:8a:ad:
                    41:05:d1:ac:97:fd:81:66:c4:02:e4:a3:62:90:af:
                    b2:50:70:b6:4d:57:b6:7c:0d:95:c9:3f:a7:55:19:
                    70:10:8c:9b:40:5c:a5:32:59:19:fe:4d:12:3e:76:
                    3a:41:3f:6e:b9:7f:62:e5:80:ca:99:5f:fb:7a:98:
                    cf:be:cc:c2:a6:19:f7:f2:c7:c7:f9:d3:38:f9:cf:
                    f8:06:85:e7:b2:79:ba:dc:55
                Exponent: 65537 (0x10001)
        X509v3 extensions:
            X509v3 Basic Constraints: 
                CA:FALSE
            Netscape Comment: 
                OpenSSL Generated Certificate
            X509v3 Subject Key Identifier: 
                ED:26:E5:48:4B:9E:15:7F:44:B9:4A:0B:E0:08:C2:90:53:FC:D3:B5
            X509v3 Authority Key Identifier: 
                keyid:C0:6C:D3:72:3D:E7:3C:E8:A6:69:E6:B0:4A:E8:C2:2A:A5:93:C0:7A
                DirName:/C=US/ST=Florida/L=Tallahassee/O=Florida State University/OU=Computer Science Department/CN=Robert A. van Engelen/Email=engelen@cs.fsu.edu
                serial:00

    Signature Algorithm: md5WithRSAEncryption
        71:86:57:45:18:e6:71:a5:ac:96:92:7a:ec:0c:3d:a1:e9:3a:
        ca:d2:96:05:cd:0c:58:ce:5f:17:bf:8f:c7:32:9b:52:8e:06:
        54:4d:f1:62:7c:14:ac:54:b8:73:e1:f1:ea:36:96:b6:04:b1:
        13:f0:07:99:a5:85:a2:c9:b3:e6:c4:df:8c:da:2b:10:00:47:
        7e:3f:22:b1:66:97:33:0c:cf:45:af:7a:13:a1:16:e2:37:7a:
        98:f8:c7:f8:d9:8a:79:24:72:a3:50:e6:ec:5e:b2:90:9b:a0:
        15:71:27:b8:ac:64:fe:08:38:be:1d:3b:b8:11:dc:43:09:47:
        07:14
-----BEGIN CERTIFICATE-----
MIIEGjCCA4OgAwIBAgIBAzANBgkqhkiG9w0BAQQFADCBwTELMAkGA1UEBhMCVVMx
EDAOBgNVBAgTB0Zsb3JpZGExFDASBgNVBAcTC1RhbGxhaGFzc2VlMSEwHwYDVQQK
ExhGbG9yaWRhIFN0YXRlIFVuaXZlcnNpdHkxJDAiBgNVBAsTG0NvbXB1dGVyIFNj
aWVuY2UgRGVwYXJ0bWVudDEeMBwGA1UEAxMVUm9iZXJ0IEEuIHZhbiBFbmdlbGVu
MSEwHwYJKoZIhvcNAQkBFhJlbmdlbGVuQGNzLmZzdS5lZHUwHhcNMDIwMzI3MDkw
MzM3WhcNMDMwMzI3MDkwMzM3WjCBkjELMAkGA1UEBhMCVVMxEDAOBgNVBAgTB0Zs
b3JpZGExFDASBgNVBAcTC1RhbGxhaGFzc2VlMSEwHwYDVQQKExhGbG9yaWRhIFN0
YXRlIFVuaXZlcnNpdHkxITAfBgNVBAsTGEZsb3JpZGEgU3RhdGUgVW5pdmVyc2l0
eTEVMBMGA1UEAxMMZ1NvYXAgY2xpZW50MIGfMA0GCSqGSIb3DQEBAQUAA4GNADCB
iQKBgQDLYyFj0AUZbCZWhKK1GtIDN932KfYnLV4ZgbZ928ad1E5RoaDBBos8j4SK
rUEF0ayX/YFmxALko2KQr7JQcLZNV7Z8DZXJP6dVGXAQjJtAXKUyWRn+TRI+djpB
P265f2LlgMqZX/t6mM++zMKmGffyx8f50zj5z/gGheeyebrcVQIDAQABo4IBTTCC
AUkwCQYDVR0TBAIwADAsBglghkgBhvhCAQ0EHxYdT3BlblNTTCBHZW5lcmF0ZWQg
Q2VydGlmaWNhdGUwHQYDVR0OBBYEFO0m5UhLnhV/RLlKC+AIwpBT/NO1MIHuBgNV
HSMEgeYwgeOAFMBs03I95zzopmnmsErowiqlk8B6oYHHpIHEMIHBMQswCQYDVQQG
EwJVUzEQMA4GA1UECBMHRmxvcmlkYTEUMBIGA1UEBxMLVGFsbGFoYXNzZWUxITAf
BgNVBAoTGEZsb3JpZGEgU3RhdGUgVW5pdmVyc2l0eTEkMCIGA1UECxMbQ29tcHV0
ZXIgU2NpZW5jZSBEZXBhcnRtZW50MR4wHAYDVQQDExVSb2JlcnQgQS4gdmFuIEVu
Z2VsZW4xITAfBgkqhkiG9w0BCQEWEmVuZ2VsZW5AY3MuZnN1LmVkdYIBADANBgkq
hkiG9w0BAQQFAAOBgQBxhldFGOZxpayWknrsDD2h6TrK0pYFzQxYzl8Xv4/HMptS
jgZUTfFifBSsVLhz4fHqNpa2BLET8AeZpYWiybPmxN+M2isQAEd+PyKxZpczDM9F
r3oToRbiN3qY+Mf42Yp5JHKjUObsXrKQm6AVcSe4rGT+CDi+HTu4EdxDCUcHFA==
-----END CERTIFICATE-----
