-----BEGIN RSA PRIVATE KEY-----
Proc-Type: 4,ENCRYPTED
DEK-Info: DES-EDE3-CBC,8EA6930F0AB570DA

qJoeyHc0ovsDsVM3xMRFbZN3FbXmPJJalWMF8sV9dHxAM2QFcVFn6/UzPei4OQtY
nXh9bkVborKlAvamw443GhrLgylWo1PfHrUDX3km40G4nZFfZFt/3wrK7UDbZAFD
nKp8ztqMl74eOY8ffSJs0EGdvNgt1TIyiZLBp526MUSVW63iuHi7SpkIYHWdS8eb
rKfHHToY9DWVnPCtZlHQnMb7nw50vx+6WZQv1Uo75MTml9tB5GPB1JRNwb+bkls+
Twt/se/p6jwd1tgf/tCkL2TSiB9b6b/ds39z5X+5QWjR1LtEE4y2ct7LMIFqUeHL
OyWwcRhYvMxPTIUL8SAC426Aei8bKn1rsnDH8n/D5P96IaViQUAwEqVup0YsCj+S
4cOLxTK+nOhMZ5EtSkKxcimtcb6m+p46lIlKB8NO8QIK+aDN9IIVNKUBEJb4L9J0
rxa7YZSCZp3vuuvSZzYnB99XI8fuyT+xNIfJAdHl1dl6In+c6mJxJKfZWBPGO6z0
2bpzIm96d2cjUu94NhjceBOBTGB+MVKmoqyBMtEEL2foTq+Jfmoedm83DaQkgs0Q
p7Wb6oNFtSd/WYpv9o8c+PKv7BzlqQm4xEnNjfSqK9dX/KajI40qvfwXxUdlpH29
mnrzR3SC8iW2r6fpAplU7JN9OtuM8fENBs1q+R1PtqfMFEtorLeeGmtpteIu46MG
XwLTAPIDz9pfVaE50aVYuGM0EOk5rHRYwK+LNh2l9viQUdoa/Jrdytvofieig+tY
B5xRU6qOKKRy7qQuV6JR4RhS6r2TLbJ0A4g3weEKitp87KubvBi3jA==
-----END RSA PRIVATE KEY-----
Certificate:
    Data:
        Version: 3 (0x2)
        Serial Number: 2 (0x2)
        Signature Algorithm: md5WithRSAEncryption
        Issuer: C=US, ST=Florida, L=Tallahassee, O=Florida State University, OU=Computer Science Department, CN=Robert A. van Engelen/Email=engelen@cs.fsu.edu
        Validity
            Not Before: Mar 27 09:00:26 2002 GMT
            Not After : Mar 27 09:00:26 2003 GMT
        Subject: C=US, ST=Florida, L=Tallahassee, O=Florida State University, OU=Computer Science Department, CN=linprog2.cs.fsu.edu/Email=engelen@cs.fsu.edu 
        Subject Public Key Info:
            Public Key Algorithm: rsaEncryption
            RSA Public Key: (1024 bit)
                Modulus (1024 bit):
                    00:dc:79:31:ec:be:09:9c:48:91:a6:a1:8c:9a:31:
                    76:b8:80:fc:c6:7d:21:12:78:b0:c1:a1:29:17:e5:
                    de:da:a6:50:49:2e:bd:73:4a:9c:8d:d3:1f:d1:76:
                    18:a6:85:84:87:87:39:98:ce:1f:5d:7c:d9:ea:44:
                    c5:78:34:39:a6:6a:c7:fc:46:9f:e3:5f:c3:89:c5:
                    aa:6b:50:aa:6c:02:d4:61:45:d8:4f:7c:bc:a6:75:
                    70:9d:c0:38:aa:4e:bf:a9:7d:22:92:6f:be:39:f6:
                    0f:06:3f:4f:15:21:6e:33:b5:73:45:63:b9:1b:81:
                    e5:b9:f9:53:20:b6:17:ca:43
                Exponent: 65537 (0x10001)
        X509v3 extensions:
            X509v3 Basic Constraints: 
                CA:FALSE
            Netscape Comment: 
                OpenSSL Generated Certificate
            X509v3 Subject Key Identifier: 
                E8:A5:54:56:8F:02:C1:75:4B:F7:07:9C:32:F0:FA:F7:2B:42:3D:E5
            X509v3 Authority Key Identifier: 
                keyid:C0:6C:D3:72:3D:E7:3C:E8:A6:69:E6:B0:4A:E8:C2:2A:A5:93:C0:7A
                DirName:/C=US/ST=Florida/L=Tallahassee/O=Florida State University/OU=Computer Science Department/CN=Robert A. van Engelen/Email=engelen@cs.fsu.edu
                serial:00

    Signature Algorithm: md5WithRSAEncryption
        90:84:67:ea:c0:42:e1:bb:35:a4:aa:6b:2e:0d:b5:6c:67:fa:
        8a:97:c5:b7:60:56:e8:4f:ea:86:61:f0:c0:e2:0d:a3:ce:26:
        ce:b7:25:6f:21:db:51:06:5a:82:12:36:68:57:6f:61:07:79:
        b1:cb:d3:10:8a:79:1c:49:1d:e0:7d:0c:a1:1e:7f:f6:3e:8f:
        93:06:5d:97:ab:a1:38:dc:9a:11:a6:19:72:55:d3:2b:fc:f2:
        bd:2d:72:2c:df:93:1d:5e:a6:80:a0:74:ba:1f:55:19:5e:a8:
        43:3b:c2:60:da:b9:0a:7d:2f:90:e3:41:a3:cd:88:78:bd:5f:
        a7:72
-----BEGIN CERTIFICATE-----
MIIESDCCA7GgAwIBAgIBAjANBgkqhkiG9w0BAQQFADCBwTELMAkGA1UEBhMCVVMx
EDAOBgNVBAgTB0Zsb3JpZGExFDASBgNVBAcTC1RhbGxhaGFzc2VlMSEwHwYDVQQK
ExhGbG9yaWRhIFN0YXRlIFVuaXZlcnNpdHkxJDAiBgNVBAsTG0NvbXB1dGVyIFNj
aWVuY2UgRGVwYXJ0bWVudDEeMBwGA1UEAxMVUm9iZXJ0IEEuIHZhbiBFbmdlbGVu
MSEwHwYJKoZIhvcNAQkBFhJlbmdlbGVuQGNzLmZzdS5lZHUwHhcNMDIwMzI3MDkw
MDI2WhcNMDMwMzI3MDkwMDI2WjCBwDELMAkGA1UEBhMCVVMxEDAOBgNVBAgTB0Zs
b3JpZGExFDASBgNVBAcTC1RhbGxhaGFzc2VlMSEwHwYDVQQKExhGbG9yaWRhIFN0
YXRlIFVuaXZlcnNpdHkxJDAiBgNVBAsTG0NvbXB1dGVyIFNjaWVuY2UgRGVwYXJ0
bWVudDEcMBoGA1UEAxMTbGlucHJvZzIuY3MuZnN1LmVkdTEiMCAGCSqGSIb3DQEJ
ARYTZW5nZWxlbkBjcy5mc3UuZWR1IDCBnzANBgkqhkiG9w0BAQEFAAOBjQAwgYkC
gYEA3Hkx7L4JnEiRpqGMmjF2uID8xn0hEniwwaEpF+Xe2qZQSS69c0qcjdMf0XYY
poWEh4c5mM4fXXzZ6kTFeDQ5pmrH/Eaf41/DicWqa1CqbALUYUXYT3y8pnVwncA4
qk6/qX0ikm++OfYPBj9PFSFuM7VzRWO5G4HluflTILYXykMCAwEAAaOCAU0wggFJ
MAkGA1UdEwQCMAAwLAYJYIZIAYb4QgENBB8WHU9wZW5TU0wgR2VuZXJhdGVkIENl
cnRpZmljYXRlMB0GA1UdDgQWBBTopVRWjwLBdUv3B5wy8Pr3K0I95TCB7gYDVR0j
BIHmMIHjgBTAbNNyPec86KZp5rBK6MIqpZPAeqGBx6SBxDCBwTELMAkGA1UEBhMC
VVMxEDAOBgNVBAgTB0Zsb3JpZGExFDASBgNVBAcTC1RhbGxhaGFzc2VlMSEwHwYD
VQQKExhGbG9yaWRhIFN0YXRlIFVuaXZlcnNpdHkxJDAiBgNVBAsTG0NvbXB1dGVy
IFNjaWVuY2UgRGVwYXJ0bWVudDEeMBwGA1UEAxMVUm9iZXJ0IEEuIHZhbiBFbmdl
bGVuMSEwHwYJKoZIhvcNAQkBFhJlbmdlbGVuQGNzLmZzdS5lZHWCAQAwDQYJKoZI
hvcNAQEEBQADgYEAkIRn6sBC4bs1pKprLg21bGf6ipfFt2BW6E/qhmHwwOINo84m
zrclbyHbUQZaghI2aFdvYQd5scvTEIp5HEkd4H0MoR5/9j6PkwZdl6uhONyaEaYZ
clXTK/zyvS1yLN+THV6mgKB0uh9VGV6oQzvCYNq5Cn0vkONBo82IeL1fp3I=
-----END CERTIFICATE-----
